; Function Attrs: mustprogress nofree norecurse nosync nounwind willreturn memory(read, inaccessiblemem: none) uwtable
define dso_local noundef zeroext i1 @_ZNK4Luau14NormalizedType20shouldSuppressErrorsEv(ptr noundef nonnull readonly align 8 captures(none) dereferenceable(401) %0) local_unnamed_addr #9 align 2 {
  %2 = getelementptr inbounds nuw i8, ptr %0, i64 96
  %3 = load ptr, ptr %2, align 8, !tbaa !122
  %.not.i.i.i = icmp eq ptr %3, null
  br i1 %.not.i.i.i, label %_ZNK4Luau14NormalizedType9hasErrorsEv.exit.thread, label %_ZNK4Luau14NormalizedType9hasErrorsEv.exit

_ZNK4Luau14NormalizedType9hasErrorsEv.exit:       ; preds = %1
  %4 = load i32, ptr %3, align 8, !tbaa !52
  %.not = icmp eq i32 %4, 17
  br i1 %.not, label %5, label %_ZNK4Luau14NormalizedType9hasErrorsEv.exit.thread

5:                                                ; preds = %_ZNK4Luau14NormalizedType9hasErrorsEv.exit
  %6 = load ptr, ptr %0, align 8, !tbaa !114
  %.not.i.i = icmp eq ptr %6, null
  br i1 %.not.i.i, label %_ZNK4Luau14NormalizedType9hasErrorsEv.exit.thread, label %7

7:                                                ; preds = %5
  %8 = load i32, ptr %6, align 8, !tbaa !52
  %9 = icmp eq i32 %8, 12
  br label %_ZNK4Luau14NormalizedType9hasErrorsEv.exit.thread

_ZNK4Luau14NormalizedType9hasErrorsEv.exit.thread: ; preds = %7, %5, %1, %_ZNK4Luau14NormalizedType9hasErrorsEv.exit
  %10 = phi i1 [ true, %_ZNK4Luau14NormalizedType9hasErrorsEv.exit ], [ true, %1 ], [ %9, %7 ], [ false, %5 ]
  ret i1 %10
}